; Function Attrs: mustprogress nofree norecurse nosync nounwind willreturn memory(argmem: read) uwtable
define internal noundef zeroext i1 @_ZNK12_GLOBAL__N_113Eq256MatcherPIN4absl15random_internal4U256EE10gmock_ImplIRKS3_E15MatchAndExplainES7_PN7testing19MatchResultListenerE(ptr noundef nonnull readonly align 16 captures(none) dereferenceable(48) %0, ptr noundef nonnull readonly align 16 captures(none) dereferenceable(32) %1, ptr readnone captures(none) %2) unnamed_addr #12 align 2 {
  %.sroa.05.0.copyload = load i64, ptr %1, align 16, !tbaa !133
  %.sroa.26.0..sroa_idx = getelementptr inbounds nuw i8, ptr %1, i64 8
  %.sroa.26.0.copyload = load i64, ptr %.sroa.26.0..sroa_idx, align 8, !tbaa !133
  %4 = getelementptr inbounds nuw i8, ptr %0, i64 16
  %.sroa.03.0.copyload = load i64, ptr %4, align 16, !tbaa !133
  %.sroa.24.0..sroa_idx = getelementptr inbounds nuw i8, ptr %0, i64 24
  %.sroa.24.0.copyload = load i64, ptr %.sroa.24.0..sroa_idx, align 8, !tbaa !133
  %.sroa.22.0.insert.ext.i = zext i64 %.sroa.26.0.copyload to i128
  %.sroa.22.0.insert.shift.i = shl nuw i128 %.sroa.22.0.insert.ext.i, 64
  %.sroa.01.0.insert.ext.i = zext i64 %.sroa.05.0.copyload to i128
  %.sroa.01.0.insert.insert.i = or disjoint i128 %.sroa.22.0.insert.shift.i, %.sroa.01.0.insert.ext.i
  %.sroa.2.0.insert.ext.i = zext i64 %.sroa.24.0.copyload to i128
  %.sroa.2.0.insert.shift.i = shl nuw i128 %.sroa.2.0.insert.ext.i, 64
  %.sroa.0.0.insert.ext.i = zext i64 %.sroa.03.0.copyload to i128
  %.sroa.0.0.insert.insert.i = or disjoint i128 %.sroa.2.0.insert.shift.i, %.sroa.0.0.insert.ext.i
  %5 = icmp eq i128 %.sroa.01.0.insert.insert.i, %.sroa.0.0.insert.insert.i
  br i1 %5, label %6, label %10

6:                                                ; preds = %3
  %7 = getelementptr inbounds nuw i8, ptr %1, i64 16
  %.sroa.01.0.copyload = load i64, ptr %7, align 16, !tbaa !133
  %.sroa.22.0..sroa_idx = getelementptr inbounds nuw i8, ptr %1, i64 24
  %.sroa.22.0.copyload = load i64, ptr %.sroa.22.0..sroa_idx, align 8, !tbaa !133
  %8 = getelementptr inbounds nuw i8, ptr %0, i64 32
  %.sroa.0.0.copyload = load i64, ptr %8, align 16, !tbaa !133
  %.sroa.2.0..sroa_idx = getelementptr inbounds nuw i8, ptr %0, i64 40
  %.sroa.2.0.copyload = load i64, ptr %.sroa.2.0..sroa_idx, align 8, !tbaa !133
  %.sroa.22.0.insert.ext.i9 = zext i64 %.sroa.22.0.copyload to i128
  %.sroa.22.0.insert.shift.i10 = shl nuw i128 %.sroa.22.0.insert.ext.i9, 64
  %.sroa.01.0.insert.ext.i11 = zext i64 %.sroa.01.0.copyload to i128
  %.sroa.01.0.insert.insert.i12 = or disjoint i128 %.sroa.22.0.insert.shift.i10, %.sroa.01.0.insert.ext.i11
  %.sroa.2.0.insert.ext.i13 = zext i64 %.sroa.2.0.copyload to i128
  %.sroa.2.0.insert.shift.i14 = shl nuw i128 %.sroa.2.0.insert.ext.i13, 64
  %.sroa.0.0.insert.ext.i15 = zext i64 %.sroa.0.0.copyload to i128
  %.sroa.0.0.insert.insert.i16 = or disjoint i128 %.sroa.2.0.insert.shift.i14, %.sroa.0.0.insert.ext.i15
  %9 = icmp eq i128 %.sroa.01.0.insert.insert.i12, %.sroa.0.0.insert.insert.i16
  br label %10

10:                                               ; preds = %6, %3
  %11 = phi i1 [ false, %3 ], [ %9, %6 ]
  ret i1 %11
}